; Function Attrs: nounwind sspstrong uwtable
define dso_local void @tcg_gen_extract_i64(ptr noundef %0, ptr noundef %1, i32 noundef %2, i32 noundef %3) local_unnamed_addr #2 {
  %5 = icmp samesign ult i32 %2, 64
  tail call void @llvm.assume(i1 %5)
  %6 = icmp ne i32 %3, 0
  tail call void @llvm.assume(i1 %6)
  %7 = add nuw nsw i32 %3, %2
  %8 = icmp samesign ult i32 %7, 65
  tail call void @llvm.assume(i1 %8)
  %9 = icmp eq i32 %7, 64
  br i1 %9, label %10, label %40

10:                                               ; preds = %4
  %11 = icmp eq i32 %3, 64
  br i1 %11, label %12, label %24

12:                                               ; preds = %10
  %13 = icmp eq ptr %0, %1
  br i1 %13, label %tcg_gen_shri_i64.exit, label %14

14:                                               ; preds = %12
  %15 = tail call align 8 ptr @llvm.threadlocal.address.p0(ptr align 8 @tcg_ctx)
  %16 = load ptr, ptr %15, align 8
  %17 = ptrtoint ptr %0 to i64
  %18 = getelementptr inbounds nuw i8, ptr %16, i64 %17
  %19 = ptrtoint ptr %18 to i64
  %20 = ptrtoint ptr %1 to i64
  %21 = getelementptr inbounds nuw i8, ptr %16, i64 %20
  %22 = ptrtoint ptr %21 to i64
  %23 = tail call ptr @tcg_gen_op2(i32 noundef 63, i32 noundef 1, i64 noundef %19, i64 noundef %22)
  br label %tcg_gen_shri_i64.exit

24:                                               ; preds = %10
  %25 = sub nuw nsw i32 64, %3
  %26 = zext nneg i32 %25 to i64
  %27 = tail call ptr @tcg_constant_i64(i64 noundef %26) #6
  %28 = tail call align 8 ptr @llvm.threadlocal.address.p0(ptr align 8 @tcg_ctx)
  %29 = load ptr, ptr %28, align 8
  %30 = ptrtoint ptr %0 to i64
  %31 = getelementptr inbounds nuw i8, ptr %29, i64 %30
  %32 = ptrtoint ptr %31 to i64
  %33 = ptrtoint ptr %1 to i64
  %34 = getelementptr inbounds nuw i8, ptr %29, i64 %33
  %35 = ptrtoint ptr %34 to i64
  %36 = ptrtoint ptr %27 to i64
  %37 = getelementptr inbounds nuw i8, ptr %29, i64 %36
  %38 = ptrtoint ptr %37 to i64
  %39 = tail call ptr @tcg_gen_op3(i32 noundef 91, i32 noundef 1, i64 noundef %32, i64 noundef %35, i64 noundef %38)
  br label %tcg_gen_shri_i64.exit

40:                                               ; preds = %4
  %41 = icmp eq i32 %2, 0
  br i1 %41, label %42, label %45

42:                                               ; preds = %40
  %43 = zext nneg i32 %3 to i64
  %notmask51 = shl nsw i64 -1, %43
  %44 = xor i64 %notmask51, -1
  tail call void @tcg_gen_andi_i64(ptr noundef %0, ptr noundef %1, i64 noundef %44)
  br label %tcg_gen_shri_i64.exit

45:                                               ; preds = %40
  %46 = icmp eq i32 %7, 32
  br i1 %46, label %tcg_target_extract_valid.exit.thread, label %tcg_target_extract_valid.exit

tcg_target_extract_valid.exit:                    ; preds = %45
  %cond.i = icmp eq i32 %2, 8
  %47 = icmp eq i32 %3, 8
  %spec.select.i = and i1 %cond.i, %47
  br i1 %spec.select.i, label %tcg_target_extract_valid.exit.thread, label %59

tcg_target_extract_valid.exit.thread:             ; preds = %45, %tcg_target_extract_valid.exit
  %48 = zext nneg i32 %2 to i64
  %49 = zext nneg i32 %3 to i64
  %50 = tail call align 8 ptr @llvm.threadlocal.address.p0(ptr align 8 @tcg_ctx)
  %51 = load ptr, ptr %50, align 8
  %52 = ptrtoint ptr %0 to i64
  %53 = getelementptr inbounds nuw i8, ptr %51, i64 %52
  %54 = ptrtoint ptr %53 to i64
  %55 = ptrtoint ptr %1 to i64
  %56 = getelementptr inbounds nuw i8, ptr %51, i64 %55
  %57 = ptrtoint ptr %56 to i64
  %58 = tail call noundef ptr @tcg_gen_op4(i32 noundef 96, i32 noundef 1, i64 noundef %54, i64 noundef %57, i64 noundef range(i64 0, 4294967296) %48, i64 noundef %49)
  br label %tcg_gen_shri_i64.exit

59:                                               ; preds = %tcg_target_extract_valid.exit
  switch i32 %7, label %114 [
    i32 32, label %tcg_gen_shri_i64.exit54
    i32 16, label %tcg_gen_shri_i64.exit56
    i32 8, label %tcg_gen_shri_i64.exit58
  ]

tcg_gen_shri_i64.exit54:                          ; preds = %59
  %60 = tail call align 8 ptr @llvm.threadlocal.address.p0(ptr align 8 @tcg_ctx)
  %61 = load ptr, ptr %60, align 8
  %62 = ptrtoint ptr %0 to i64
  %63 = getelementptr inbounds nuw i8, ptr %61, i64 %62
  %64 = ptrtoint ptr %63 to i64
  %65 = ptrtoint ptr %1 to i64
  %66 = getelementptr inbounds nuw i8, ptr %61, i64 %65
  %67 = ptrtoint ptr %66 to i64
  %68 = tail call ptr @tcg_gen_op2(i32 noundef 109, i32 noundef 1, i64 noundef %64, i64 noundef %67)
  %69 = zext nneg i32 %2 to i64
  %70 = tail call ptr @tcg_constant_i64(i64 noundef %69) #6
  %71 = load ptr, ptr %60, align 8
  %72 = getelementptr inbounds nuw i8, ptr %71, i64 %62
  %73 = ptrtoint ptr %72 to i64
  %74 = ptrtoint ptr %70 to i64
  %75 = getelementptr inbounds nuw i8, ptr %71, i64 %74
  %76 = ptrtoint ptr %75 to i64
  %77 = tail call ptr @tcg_gen_op3(i32 noundef 91, i32 noundef 1, i64 noundef %73, i64 noundef %73, i64 noundef %76)
  br label %tcg_gen_shri_i64.exit

tcg_gen_shri_i64.exit56:                          ; preds = %59
  %78 = tail call align 8 ptr @llvm.threadlocal.address.p0(ptr align 8 @tcg_ctx)
  %79 = load ptr, ptr %78, align 8
  %80 = ptrtoint ptr %0 to i64
  %81 = getelementptr inbounds nuw i8, ptr %79, i64 %80
  %82 = ptrtoint ptr %81 to i64
  %83 = ptrtoint ptr %1 to i64
  %84 = getelementptr inbounds nuw i8, ptr %79, i64 %83
  %85 = ptrtoint ptr %84 to i64
  %86 = tail call ptr @tcg_gen_op2(i32 noundef 108, i32 noundef 1, i64 noundef %82, i64 noundef %85)
  %87 = zext nneg i32 %2 to i64
  %88 = tail call ptr @tcg_constant_i64(i64 noundef %87) #6
  %89 = load ptr, ptr %78, align 8
  %90 = getelementptr inbounds nuw i8, ptr %89, i64 %80
  %91 = ptrtoint ptr %90 to i64
  %92 = ptrtoint ptr %88 to i64
  %93 = getelementptr inbounds nuw i8, ptr %89, i64 %92
  %94 = ptrtoint ptr %93 to i64
  %95 = tail call ptr @tcg_gen_op3(i32 noundef 91, i32 noundef 1, i64 noundef %91, i64 noundef %91, i64 noundef %94)
  br label %tcg_gen_shri_i64.exit

tcg_gen_shri_i64.exit58:                          ; preds = %59
  %96 = tail call align 8 ptr @llvm.threadlocal.address.p0(ptr align 8 @tcg_ctx)
  %97 = load ptr, ptr %96, align 8
  %98 = ptrtoint ptr %0 to i64
  %99 = getelementptr inbounds nuw i8, ptr %97, i64 %98
  %100 = ptrtoint ptr %99 to i64
  %101 = ptrtoint ptr %1 to i64
  %102 = getelementptr inbounds nuw i8, ptr %97, i64 %101
  %103 = ptrtoint ptr %102 to i64
  %104 = tail call ptr @tcg_gen_op2(i32 noundef 107, i32 noundef 1, i64 noundef %100, i64 noundef %103)
  %105 = zext nneg i32 %2 to i64
  %106 = tail call ptr @tcg_constant_i64(i64 noundef %105) #6
  %107 = load ptr, ptr %96, align 8
  %108 = getelementptr inbounds nuw i8, ptr %107, i64 %98
  %109 = ptrtoint ptr %108 to i64
  %110 = ptrtoint ptr %106 to i64
  %111 = getelementptr inbounds nuw i8, ptr %107, i64 %110
  %112 = ptrtoint ptr %111 to i64
  %113 = tail call ptr @tcg_gen_op3(i32 noundef 91, i32 noundef 1, i64 noundef %109, i64 noundef %109, i64 noundef %112)
  br label %tcg_gen_shri_i64.exit

114:                                              ; preds = %59
  switch i32 %3, label %131 [
    i32 16, label %tcg_gen_shri_i64.exit60
    i32 32, label %tcg_gen_shri_i64.exit60
    i32 1, label %tcg_gen_shri_i64.exit60
    i32 2, label %tcg_gen_shri_i64.exit60
    i32 3, label %tcg_gen_shri_i64.exit60
    i32 4, label %tcg_gen_shri_i64.exit60
    i32 5, label %tcg_gen_shri_i64.exit60
    i32 6, label %tcg_gen_shri_i64.exit60
    i32 7, label %tcg_gen_shri_i64.exit60
    i32 8, label %tcg_gen_shri_i64.exit60
  ]

tcg_gen_shri_i64.exit60:                          ; preds = %114, %114, %114, %114, %114, %114, %114, %114, %114, %114
  %115 = zext nneg i32 %2 to i64
  %116 = tail call ptr @tcg_constant_i64(i64 noundef %115) #6
  %117 = tail call align 8 ptr @llvm.threadlocal.address.p0(ptr align 8 @tcg_ctx)
  %118 = load ptr, ptr %117, align 8
  %119 = ptrtoint ptr %0 to i64
  %120 = getelementptr inbounds nuw i8, ptr %118, i64 %119
  %121 = ptrtoint ptr %120 to i64
  %122 = ptrtoint ptr %1 to i64
  %123 = getelementptr inbounds nuw i8, ptr %118, i64 %122
  %124 = ptrtoint ptr %123 to i64
  %125 = ptrtoint ptr %116 to i64
  %126 = getelementptr inbounds nuw i8, ptr %118, i64 %125
  %127 = ptrtoint ptr %126 to i64
  %128 = tail call ptr @tcg_gen_op3(i32 noundef 91, i32 noundef 1, i64 noundef %121, i64 noundef %124, i64 noundef %127)
  %129 = zext nneg i32 %3 to i64
  %notmask = shl nsw i64 -1, %129
  %130 = xor i64 %notmask, -1
  tail call void @tcg_gen_andi_i64(ptr noundef %0, ptr noundef %0, i64 noundef %130)
  br label %tcg_gen_shri_i64.exit

131:                                              ; preds = %114
  %132 = sub nuw nsw i32 64, %3
  %133 = sub nsw i32 %132, %2
  %134 = zext i32 %133 to i64
  tail call void @tcg_gen_shli_i64(ptr noundef %0, ptr noundef %1, i64 noundef %134)
  %135 = zext nneg i32 %132 to i64
  tail call void @tcg_gen_shri_i64(ptr noundef %0, ptr noundef %0, i64 noundef %135)
  br label %tcg_gen_shri_i64.exit

tcg_gen_shri_i64.exit:                            ; preds = %24, %14, %12, %131, %tcg_gen_shri_i64.exit60, %tcg_gen_shri_i64.exit58, %tcg_gen_shri_i64.exit56, %tcg_gen_shri_i64.exit54, %tcg_target_extract_valid.exit.thread, %42
  ret void
}